; Function Attrs: mustprogress uwtable
define noundef zeroext i1 @_ZN5ImGui10TreeNodeExEPKviPKcz(ptr noundef %0, i32 noundef %1, ptr noundef %2, ...) local_unnamed_addr #6 {
  %4 = alloca ptr, align 8
  %5 = alloca ptr, align 8
  %6 = alloca [1 x %struct.__va_list_tag], align 16
  call void @llvm.lifetime.start.p0(i64 24, ptr nonnull %6) #44
  call void @llvm.va_start.p0(ptr nonnull %6)
  %7 = load ptr, ptr @GImGui, align 8, !tbaa !3
  %8 = getelementptr inbounds nuw i8, ptr %7, i64 5016
  %9 = load ptr, ptr %8, align 8, !tbaa !8
  %10 = getelementptr inbounds nuw i8, ptr %9, i64 204
  store i8 1, ptr %10, align 4, !tbaa !130
  %11 = getelementptr inbounds nuw i8, ptr %9, i64 207
  %12 = load i8, ptr %11, align 1, !tbaa !152, !range !153, !noundef !154
  %13 = trunc nuw i8 %12 to i1
  br i1 %13, label %_ZN5ImGui11TreeNodeExVEPKviPKcP13__va_list_tag.exit, label %14

14:                                               ; preds = %3
  %15 = call noundef i32 @_ZN11ImGuiWindow5GetIDEPKv(ptr noundef nonnull align 8 dereferenceable(1061) %9, ptr noundef %0)
  call void @llvm.lifetime.start.p0(i64 8, ptr nonnull %4) #44
  call void @llvm.lifetime.start.p0(i64 8, ptr nonnull %5) #44
  call void @_Z27ImFormatStringToTempBufferVPPKcS1_S0_P13__va_list_tag(ptr noundef nonnull %4, ptr noundef nonnull %5, ptr noundef %2, ptr noundef nonnull %6)
  %16 = load ptr, ptr %4, align 8, !tbaa !169
  %17 = load ptr, ptr %5, align 8, !tbaa !169
  %18 = call noundef zeroext i1 @_ZN5ImGui16TreeNodeBehaviorEjiPKcS1_(i32 noundef %15, i32 noundef %1, ptr noundef %16, ptr noundef %17)
  call void @llvm.lifetime.end.p0(i64 8, ptr nonnull %5) #44
  call void @llvm.lifetime.end.p0(i64 8, ptr nonnull %4) #44
  br label %_ZN5ImGui11TreeNodeExVEPKviPKcP13__va_list_tag.exit

_ZN5ImGui11TreeNodeExVEPKviPKcP13__va_list_tag.exit: ; preds = %3, %14
  %.0.i = phi i1 [ %18, %14 ], [ false, %3 ]
  call void @llvm.va_end.p0(ptr nonnull %6)
  call void @llvm.lifetime.end.p0(i64 24, ptr nonnull %6) #44
  ret i1 %.0.i
}